target datalayout = "e-m:e-p270:32:32-p271:32:32-p272:64:64-i64:64-i128:128-f80:128-n8:16:32:64-S128"
target triple = "x86_64-pc-linux-gnu"

%struct.darktable_t = type { %struct.dt_codepath_t, i32, i32, ptr, ptr, ptr, ptr, ptr, ptr, ptr, ptr, ptr, ptr, ptr, ptr, ptr, ptr, ptr, ptr, ptr, ptr, ptr, ptr, ptr, ptr, ptr, ptr, ptr, ptr, ptr, [64 x %struct.dt_pthread_mutex_t], %struct.dt_pthread_mutex_t, %struct.dt_pthread_mutex_t, %struct.dt_pthread_mutex_t, %struct.dt_pthread_mutex_t, %struct.dt_pthread_mutex_t, ptr, ptr, ptr, ptr, ptr, ptr, ptr, ptr, ptr, ptr, ptr, ptr, ptr, %struct.dt_lua_state_t, ptr, double, ptr, i32, [47 x i32], i32, i32, ptr, ptr, %struct.dt_sys_resources_t, %struct.dt_backthumb_t, %struct.dt_gimp_t }
%struct.dt_codepath_t = type { i8, [3 x i8] }
%struct.dt_pthread_mutex_t = type { %union.pthread_mutex_t }
%union.pthread_mutex_t = type { %struct.__pthread_mutex_s }
%struct.__pthread_mutex_s = type { i32, i32, i32, i32, i32, i16, i16, %struct.__pthread_internal_list }
%struct.__pthread_internal_list = type { ptr, ptr }
%struct.dt_lua_state_t = type { i32 }
%struct.dt_sys_resources_t = type { i64, i64, ptr, ptr, i32 }
%struct.dt_backthumb_t = type { double, double, i32, i32, i32, i32 }
%struct.dt_gimp_t = type { i32, ptr, ptr, i32, i32 }
%struct._GVariantBuilder = type { %union.anon }
%union.anon = type { %struct.anon }
%struct.anon = type { i64, ptr, [14 x i64] }
%struct.dt_dbus_t = type { i32, ptr, i32, i32, ptr }
%struct._GError = type { i32, i32, ptr }
%struct._dt_progress_t = type { double, ptr, i32, %struct.dt_pthread_mutex_t, ptr, ptr, ptr }
%struct.dt_control_t = type { i32, ptr, %struct.dt_action_t, %struct.dt_action_t, %struct.dt_action_t, %struct.dt_action_t, %struct.dt_action_t, %struct.dt_action_t, %struct.dt_action_t, %struct.dt_action_t, %struct.dt_action_t, %struct.dt_action_t, %struct.dt_action_t, ptr, ptr, ptr, i32, ptr, i32, i32, ptr, ptr, [256 x i8], i32, double, i32, i32, i64, i32, i32, i32, double, double, i32, i32, i32, i32, i32, i32, [8 x [1000 x i8]], i32, i32, %struct.dt_pthread_mutex_t, i32, i32, [2 x [300 x i8]], i32, i32, %struct.dt_pthread_mutex_t, %struct.dt_pthread_mutex_t, %struct.dt_pthread_mutex_t, double, i32, i32, i32, %struct.dt_pthread_mutex_t, %struct.dt_pthread_mutex_t, %union.pthread_cond_t, i32, ptr, i64, i64, ptr, [5 x ptr], [5 x i64], %struct.dt_pthread_mutex_t, [3 x ptr], [3 x i8], [3 x i64], %struct.anon.1, %struct.anon.3 }
%struct.dt_action_t = type { i32, ptr, ptr, ptr, ptr, ptr }
%union.pthread_cond_t = type { %struct.__pthread_cond_s }
%struct.__pthread_cond_s = type { %union.__atomic_wide_counter, %union.__atomic_wide_counter, [2 x i32], [2 x i32], i32, i32, [2 x i32] }
%union.__atomic_wide_counter = type { i64 }
%struct.anon.1 = type { ptr, i64, i64, double, %struct.dt_pthread_mutex_t, %struct.anon.2 }
%struct.anon.2 = type { ptr, ptr, ptr, ptr, ptr, ptr }
%struct.anon.3 = type { %struct.anon.4 }
%struct.anon.4 = type { ptr, ptr }

@darktable = external global %struct.darktable_t, align 8
@.str = private unnamed_addr constant [6 x i8] c"a{sv}\00", align 1
@.str.1 = private unnamed_addr constant [5 x i8] c"{sv}\00", align 1
@.str.3 = private unnamed_addr constant [9 x i8] c"(sa{sv})\00", align 1
@.str.4 = private unnamed_addr constant [46 x i8] c"application://org.darktable.darktable.desktop\00", align 1
@.str.5 = private unnamed_addr constant [20 x i8] c"com.canonical.Unity\00", align 1
@.str.6 = private unnamed_addr constant [11 x i8] c"/darktable\00", align 1
@.str.7 = private unnamed_addr constant [34 x i8] c"com.canonical.Unity.LauncherEntry\00", align 1
@.str.8 = private unnamed_addr constant [7 x i8] c"Update\00", align 1
@.str.10 = private unnamed_addr constant [9 x i8] c"progress\00", align 1
@.str.13 = private unnamed_addr constant [30 x i8] c"[progress_set] dbus error: %s\00", align 1

; Function Attrs: nounwind uwtable
define internal void @global_progress_set(ptr noundef %0, ptr noundef %1, double noundef %2) #0 {
  %4 = alloca ptr, align 8
  %5 = alloca ptr, align 8
  %6 = alloca double, align 8
  %7 = alloca ptr, align 8
  %8 = alloca %struct._GVariantBuilder, align 8
  %9 = alloca ptr, align 8
  store ptr %0, ptr %4, align 8, !tbaa !6
  store ptr %1, ptr %5, align 8, !tbaa !62
  store double %2, ptr %6, align 8, !tbaa !96
  %10 = load ptr, ptr %4, align 8, !tbaa !6
  %11 = getelementptr inbounds nuw %struct.dt_control_t, ptr %10, i32 0, i32 69
  %12 = getelementptr inbounds nuw %struct.anon.1, ptr %11, i32 0, i32 3
  %13 = load double, ptr %12, align 8, !tbaa !91
  %14 = load double, ptr %6, align 8, !tbaa !96
  %15 = fcmp reassoc nsz arcp contract afn ogt double %13, %14
  br i1 %15, label %16, label %21

16:                                               ; preds = %3
  %17 = load ptr, ptr %4, align 8, !tbaa !6
  %18 = getelementptr inbounds nuw %struct.dt_control_t, ptr %17, i32 0, i32 69
  %19 = getelementptr inbounds nuw %struct.anon.1, ptr %18, i32 0, i32 3
  %20 = load double, ptr %19, align 8, !tbaa !91
  br label %23

21:                                               ; preds = %3
  %22 = load double, ptr %6, align 8, !tbaa !96
  br label %23

23:                                               ; preds = %21, %16
  %24 = phi reassoc nsz arcp contract afn double [ %20, %16 ], [ %22, %21 ]
  %25 = load ptr, ptr %4, align 8, !tbaa !6
  %26 = getelementptr inbounds nuw %struct.dt_control_t, ptr %25, i32 0, i32 69
  %27 = getelementptr inbounds nuw %struct.anon.1, ptr %26, i32 0, i32 3
  store double %24, ptr %27, align 8, !tbaa !91
  %28 = load ptr, ptr getelementptr inbounds nuw (%struct.darktable_t, ptr @darktable, i32 0, i32 26), align 8, !tbaa !11
  %29 = icmp ne ptr %28, null
  br i1 %29, label %30, label %65

30:                                               ; preds = %23
  %31 = load ptr, ptr getelementptr inbounds nuw (%struct.darktable_t, ptr @darktable, i32 0, i32 26), align 8, !tbaa !11
  %32 = getelementptr inbounds nuw %struct.dt_dbus_t, ptr %31, i32 0, i32 4
  %33 = load ptr, ptr %32, align 8, !tbaa !49
  %34 = icmp ne ptr %33, null
  br i1 %34, label %35, label %65

35:                                               ; preds = %30
  call void @llvm.lifetime.start.p0(i64 8, ptr %7) #6
  store ptr null, ptr %7, align 8, !tbaa !53
  call void @llvm.lifetime.start.p0(i64 128, ptr %8) #6
  %36 = call ptr @g_variant_type_checked_(ptr noundef @.str)
  call void @g_variant_builder_init(ptr noundef %8, ptr noundef %36)
  %37 = load ptr, ptr %4, align 8, !tbaa !6
  %38 = getelementptr inbounds nuw %struct.dt_control_t, ptr %37, i32 0, i32 69
  %39 = getelementptr inbounds nuw %struct.anon.1, ptr %38, i32 0, i32 3
  %40 = load double, ptr %39, align 8, !tbaa !91
  %41 = call ptr @g_variant_new_double(double noundef %40)
  call void (ptr, ptr, ...) @g_variant_builder_add(ptr noundef %8, ptr noundef @.str.1, ptr noundef @.str.10, ptr noundef %41)
  call void @llvm.lifetime.start.p0(i64 8, ptr %9) #6
  %42 = call ptr (ptr, ...) @g_variant_new(ptr noundef @.str.3, ptr noundef @.str.4, ptr noundef %8)
  store ptr %42, ptr %9, align 8, !tbaa !55
  %43 = load ptr, ptr getelementptr inbounds nuw (%struct.darktable_t, ptr @darktable, i32 0, i32 26), align 8, !tbaa !11
  %44 = getelementptr inbounds nuw %struct.dt_dbus_t, ptr %43, i32 0, i32 4
  %45 = load ptr, ptr %44, align 8, !tbaa !49
  %46 = load ptr, ptr %9, align 8, !tbaa !55
  %47 = call i32 @g_dbus_connection_emit_signal(ptr noundef %45, ptr noundef @.str.5, ptr noundef @.str.6, ptr noundef @.str.7, ptr noundef @.str.8, ptr noundef %46, ptr noundef %7)
  %48 = load ptr, ptr %7, align 8, !tbaa !53
  %49 = icmp ne ptr %48, null
  br i1 %49, label %50, label %64

50:                                               ; preds = %35
  br label %51

51:                                               ; preds = %50
  %52 = load i32, ptr getelementptr inbounds nuw (%struct.darktable_t, ptr @darktable, i32 0, i32 2), align 8, !tbaa !57
  %53 = xor i32 %52, -1
  %54 = and i32 0, %53
  %55 = icmp ne i32 %54, 0
  br i1 %55, label %60, label %56

56:                                               ; preds = %51
  %57 = load ptr, ptr %7, align 8, !tbaa !53
  %58 = getelementptr inbounds nuw %struct._GError, ptr %57, i32 0, i32 2
  %59 = load ptr, ptr %58, align 8, !tbaa !58
  call void (ptr, ...) @dt_print_ext(ptr noundef @.str.13, ptr noundef %59)
  br label %60

60:                                               ; preds = %56, %51
  br label %61

61:                                               ; preds = %60
  br label %62

62:                                               ; preds = %61
  %63 = load ptr, ptr %7, align 8, !tbaa !53
  call void @g_error_free(ptr noundef %63)
  br label %64

64:                                               ; preds = %62, %35
  call void @llvm.lifetime.end.p0(i64 8, ptr %9) #6
  call void @llvm.lifetime.end.p0(i64 128, ptr %8) #6
  call void @llvm.lifetime.end.p0(i64 8, ptr %7) #6
  br label %65

65:                                               ; preds = %64, %30, %23
  ret void
}

; Function Attrs: inlinehint nounwind uwtable
define internal i32 @dt_pthread_mutex_unlock(ptr noundef %0) #4 {
  %2 = alloca ptr, align 8
  store ptr %0, ptr %2, align 8, !tbaa !87
  %3 = load ptr, ptr %2, align 8, !tbaa !87
  %4 = getelementptr inbounds nuw %struct.dt_pthread_mutex_t, ptr %3, i32 0, i32 0
  %5 = call i32 @pthread_mutex_unlock(ptr noundef %4) #6
  ret i32 %5
}

; Function Attrs: inlinehint nounwind uwtable
define internal i32 @dt_pthread_mutex_lock(ptr noundef %0) #4 {
  %2 = alloca ptr, align 8
  store ptr %0, ptr %2, align 8, !tbaa !87
  %3 = load ptr, ptr %2, align 8, !tbaa !87
  %4 = getelementptr inbounds nuw %struct.dt_pthread_mutex_t, ptr %3, i32 0, i32 0
  %5 = call i32 @pthread_mutex_lock(ptr noundef %4) #6
  ret i32 %5
}

; Function Attrs: nounwind uwtable
define void @dt_control_progress_set_progress(ptr noundef %0, ptr noundef %1, double noundef %2) #0 {
  %4 = alloca ptr, align 8
  %5 = alloca ptr, align 8
  %6 = alloca double, align 8
  store ptr %0, ptr %4, align 8, !tbaa !6
  store ptr %1, ptr %5, align 8, !tbaa !62
  store double %2, ptr %6, align 8, !tbaa !96
  %7 = load double, ptr %6, align 8, !tbaa !96
  %8 = fcmp reassoc nsz arcp contract afn ogt double %7, 1.000000e+00
  br i1 %8, label %9, label %10

9:                                                ; preds = %3
  br label %18

10:                                               ; preds = %3
  %11 = load double, ptr %6, align 8, !tbaa !96
  %12 = fcmp reassoc nsz arcp contract afn olt double %11, 0.000000e+00
  br i1 %12, label %13, label %14

13:                                               ; preds = %10
  br label %16

14:                                               ; preds = %10
  %15 = load double, ptr %6, align 8, !tbaa !96
  br label %16

16:                                               ; preds = %14, %13
  %17 = phi reassoc nsz arcp contract afn double [ 0.000000e+00, %13 ], [ %15, %14 ]
  br label %18

18:                                               ; preds = %16, %9
  %19 = phi reassoc nsz arcp contract afn double [ 1.000000e+00, %9 ], [ %17, %16 ]
  store double %19, ptr %6, align 8, !tbaa !96
  %20 = load ptr, ptr %5, align 8, !tbaa !62
  %21 = getelementptr inbounds nuw %struct._dt_progress_t, ptr %20, i32 0, i32 3
  %22 = call i32 @dt_pthread_mutex_lock(ptr noundef %21)
  %23 = load double, ptr %6, align 8, !tbaa !96
  %24 = load ptr, ptr %5, align 8, !tbaa !62
  %25 = getelementptr inbounds nuw %struct._dt_progress_t, ptr %24, i32 0, i32 0
  store double %23, ptr %25, align 8, !tbaa !103
  %26 = load ptr, ptr %5, align 8, !tbaa !62
  %27 = getelementptr inbounds nuw %struct._dt_progress_t, ptr %26, i32 0, i32 3
  %28 = call i32 @dt_pthread_mutex_unlock(ptr noundef %27)
  %29 = load ptr, ptr %4, align 8, !tbaa !6
  %30 = getelementptr inbounds nuw %struct.dt_control_t, ptr %29, i32 0, i32 69
  %31 = getelementptr inbounds nuw %struct.anon.1, ptr %30, i32 0, i32 4
  %32 = call i32 @dt_pthread_mutex_lock(ptr noundef %31)
  %33 = load ptr, ptr %4, align 8, !tbaa !6
  %34 = getelementptr inbounds nuw %struct.dt_control_t, ptr %33, i32 0, i32 69
  %35 = getelementptr inbounds nuw %struct.anon.1, ptr %34, i32 0, i32 5
  %36 = getelementptr inbounds nuw %struct.anon.2, ptr %35, i32 0, i32 0
  %37 = load ptr, ptr %36, align 8, !tbaa !84
  %38 = icmp ne ptr %37, null
  br i1 %38, label %39, label %54

39:                                               ; preds = %18
  %40 = load ptr, ptr %4, align 8, !tbaa !6
  %41 = getelementptr inbounds nuw %struct.dt_control_t, ptr %40, i32 0, i32 69
  %42 = getelementptr inbounds nuw %struct.anon.1, ptr %41, i32 0, i32 5
  %43 = getelementptr inbounds nuw %struct.anon.2, ptr %42, i32 0, i32 4
  %44 = load ptr, ptr %43, align 8, !tbaa !104
  %45 = load ptr, ptr %4, align 8, !tbaa !6
  %46 = getelementptr inbounds nuw %struct.dt_control_t, ptr %45, i32 0, i32 69
  %47 = getelementptr inbounds nuw %struct.anon.1, ptr %46, i32 0, i32 5
  %48 = getelementptr inbounds nuw %struct.anon.2, ptr %47, i32 0, i32 0
  %49 = load ptr, ptr %48, align 8, !tbaa !84
  %50 = load ptr, ptr %5, align 8, !tbaa !62
  %51 = getelementptr inbounds nuw %struct._dt_progress_t, ptr %50, i32 0, i32 4
  %52 = load ptr, ptr %51, align 8, !tbaa !86
  %53 = load double, ptr %6, align 8, !tbaa !96
  call void %44(ptr noundef %49, ptr noundef %52, double noundef %53)
  br label %54

54:                                               ; preds = %39, %18
  %55 = load ptr, ptr %5, align 8, !tbaa !62
  %56 = getelementptr inbounds nuw %struct._dt_progress_t, ptr %55, i32 0, i32 2
  %57 = load i32, ptr %56, align 8, !tbaa !66
  %58 = icmp ne i32 %57, 0
  br i1 %58, label %59, label %63

59:                                               ; preds = %54
  %60 = load ptr, ptr %4, align 8, !tbaa !6
  %61 = load ptr, ptr %5, align 8, !tbaa !62
  %62 = load double, ptr %6, align 8, !tbaa !96
  call void @global_progress_set(ptr noundef %60, ptr noundef %61, double noundef %62)
  br label %63

63:                                               ; preds = %59, %54
  %64 = load ptr, ptr %4, align 8, !tbaa !6
  %65 = getelementptr inbounds nuw %struct.dt_control_t, ptr %64, i32 0, i32 69
  %66 = getelementptr inbounds nuw %struct.anon.1, ptr %65, i32 0, i32 4
  %67 = call i32 @dt_pthread_mutex_unlock(ptr noundef %66)
  ret void
}