; Function Attrs: nounwind uwtable
define void @dt_control_progress_set_progress(ptr noundef %0, ptr noundef %1, double noundef %2) local_unnamed_addr #0 {
  %4 = alloca ptr, align 8
  %5 = alloca %struct._GVariantBuilder, align 8
  %6 = fcmp reassoc nsz arcp contract afn ogt double %2, 1.000000e+00
  %7 = fcmp reassoc nsz arcp contract afn olt double %2, 0.000000e+00
  %8 = select reassoc nsz arcp contract afn i1 %7, double 0.000000e+00, double %2
  %9 = select reassoc nsz arcp contract afn i1 %6, double 1.000000e+00, double %8
  %10 = getelementptr inbounds nuw i8, ptr %1, i64 24
  %11 = tail call i32 @pthread_mutex_lock(ptr noundef nonnull %10) #6
  store double %9, ptr %1, align 8, !tbaa !84
  %12 = tail call i32 @pthread_mutex_unlock(ptr noundef nonnull %10) #6
  %13 = getelementptr inbounds nuw i8, ptr %0, i64 10136
  %14 = tail call i32 @pthread_mutex_lock(ptr noundef nonnull %13) #6
  %15 = getelementptr inbounds nuw i8, ptr %0, i64 10176
  %16 = load ptr, ptr %15, align 8, !tbaa !78
  %.not = icmp eq ptr %16, null
  br i1 %.not, label %22, label %17

17:                                               ; preds = %3
  %18 = getelementptr inbounds nuw i8, ptr %0, i64 10208
  %19 = load ptr, ptr %18, align 8, !tbaa !89
  %20 = getelementptr inbounds nuw i8, ptr %1, i64 64
  %21 = load ptr, ptr %20, align 8, !tbaa !80
  tail call void %19(ptr noundef nonnull %16, ptr noundef %21, double noundef %9) #6
  br label %22

22:                                               ; preds = %17, %3
  %23 = getelementptr inbounds nuw i8, ptr %1, i64 16
  %24 = load i32, ptr %23, align 8, !tbaa !58
  %.not18 = icmp eq i32 %24, 0
  br i1 %.not18, label %global_progress_set.exit, label %25

25:                                               ; preds = %22
  %26 = getelementptr inbounds nuw i8, ptr %0, i64 10128
  %27 = load double, ptr %26, align 8, !tbaa !77
  %28 = fcmp reassoc nsz arcp contract afn ogt double %27, %9
  %..i = select reassoc nsz arcp contract afn i1 %28, double %27, double %9
  store double %..i, ptr %26, align 8, !tbaa !77
  %29 = load ptr, ptr getelementptr inbounds nuw (i8, ptr @darktable, i64 200), align 8, !tbaa !6
  %.not.i = icmp eq ptr %29, null
  br i1 %.not.i, label %global_progress_set.exit, label %30

30:                                               ; preds = %25
  %31 = getelementptr inbounds nuw i8, ptr %29, i64 24
  %32 = load ptr, ptr %31, align 8, !tbaa !48
  %.not10.i = icmp eq ptr %32, null
  br i1 %.not10.i, label %global_progress_set.exit, label %33

33:                                               ; preds = %30
  call void @llvm.lifetime.start.p0(i64 8, ptr nonnull %4) #6
  store ptr null, ptr %4, align 8, !tbaa !52
  call void @llvm.lifetime.start.p0(i64 128, ptr nonnull %5) #6
  %34 = tail call ptr @g_variant_type_checked_(ptr noundef nonnull @.str) #6
  call void @g_variant_builder_init(ptr noundef nonnull %5, ptr noundef %34) #6
  %35 = load double, ptr %26, align 8, !tbaa !77
  %36 = call ptr @g_variant_new_double(double noundef %35) #6
  call void (ptr, ptr, ...) @g_variant_builder_add(ptr noundef nonnull %5, ptr noundef nonnull @.str.1, ptr noundef nonnull @.str.10, ptr noundef %36) #6
  %37 = call ptr (ptr, ...) @g_variant_new(ptr noundef nonnull @.str.3, ptr noundef nonnull @.str.4, ptr noundef nonnull %5) #6
  %38 = load ptr, ptr getelementptr inbounds nuw (i8, ptr @darktable, i64 200), align 8, !tbaa !6
  %39 = getelementptr inbounds nuw i8, ptr %38, i64 24
  %40 = load ptr, ptr %39, align 8, !tbaa !48
  %41 = call i32 @g_dbus_connection_emit_signal(ptr noundef %40, ptr noundef nonnull @.str.5, ptr noundef nonnull @.str.6, ptr noundef nonnull @.str.7, ptr noundef nonnull @.str.8, ptr noundef %37, ptr noundef nonnull %4) #6
  %42 = load ptr, ptr %4, align 8, !tbaa !52
  %.not11.i = icmp eq ptr %42, null
  br i1 %.not11.i, label %47, label %43

43:                                               ; preds = %33
  %44 = getelementptr inbounds nuw i8, ptr %42, i64 8
  %45 = load ptr, ptr %44, align 8, !tbaa !54
  call void (ptr, ...) @dt_print_ext(ptr noundef nonnull @.str.13, ptr noundef %45) #6
  %46 = load ptr, ptr %4, align 8, !tbaa !52
  call void @g_error_free(ptr noundef %46) #6
  br label %47

47:                                               ; preds = %43, %33
  call void @llvm.lifetime.end.p0(i64 128, ptr nonnull %5) #6
  call void @llvm.lifetime.end.p0(i64 8, ptr nonnull %4) #6
  br label %global_progress_set.exit

global_progress_set.exit:                         ; preds = %47, %30, %25, %22
  %48 = call i32 @pthread_mutex_unlock(ptr noundef nonnull %13) #6
  ret void
}